target datalayout = "e-m:e-p270:32:32-p271:32:32-p272:64:64-i64:64-i128:128-f80:128-n8:16:32:64-S128"
target triple = "x86_64-pc-linux-gnu"

%struct.OpusRangeCoder = type { %struct.GetBitContext, %struct.RawBitsContext, i32, i32, i32, [1287 x i8], ptr, i32, i32, i32 }
%struct.GetBitContext = type { ptr, ptr, i32, i32, i32 }
%struct.RawBitsContext = type { ptr, i32, i32, i32 }

; Function Attrs: nounwind uwtable
define void @ff_opus_rc_dec_raw_init(ptr noundef %0, ptr noundef %1, i32 noundef %2) #0 {
  %4 = alloca ptr, align 8
  %5 = alloca ptr, align 8
  %6 = alloca i32, align 4
  store ptr %0, ptr %4, align 8, !tbaa !4
  store ptr %1, ptr %5, align 8, !tbaa !36
  store i32 %2, ptr %6, align 4, !tbaa !13
  %7 = load ptr, ptr %5, align 8, !tbaa !36
  %8 = load ptr, ptr %4, align 8, !tbaa !4
  %9 = getelementptr inbounds nuw %struct.OpusRangeCoder, ptr %8, i32 0, i32 1
  %10 = getelementptr inbounds nuw %struct.RawBitsContext, ptr %9, i32 0, i32 0
  store ptr %7, ptr %10, align 8, !tbaa !27
  %11 = load i32, ptr %6, align 4, !tbaa !13
  %12 = load ptr, ptr %4, align 8, !tbaa !4
  %13 = getelementptr inbounds nuw %struct.OpusRangeCoder, ptr %12, i32 0, i32 1
  %14 = getelementptr inbounds nuw %struct.RawBitsContext, ptr %13, i32 0, i32 1
  store i32 %11, ptr %14, align 8, !tbaa !25
  %15 = load ptr, ptr %4, align 8, !tbaa !4
  %16 = getelementptr inbounds nuw %struct.OpusRangeCoder, ptr %15, i32 0, i32 1
  %17 = getelementptr inbounds nuw %struct.RawBitsContext, ptr %16, i32 0, i32 2
  store i32 0, ptr %17, align 4, !tbaa !26
  %18 = load ptr, ptr %4, align 8, !tbaa !4
  %19 = getelementptr inbounds nuw %struct.OpusRangeCoder, ptr %18, i32 0, i32 1
  %20 = getelementptr inbounds nuw %struct.RawBitsContext, ptr %19, i32 0, i32 3
  store i32 0, ptr %20, align 8, !tbaa !29
  ret void
}